; Function Attrs: nounwind uwtable
define dso_local ptr @app_load_config_modules(ptr noundef %0) local_unnamed_addr #0 {
  %.not = icmp eq ptr %0, null
  br i1 %.not, label %13, label %2

2:                                                ; preds = %1
  %3 = tail call ptr @app_load_config_verbose(ptr noundef nonnull %0, i32 noundef 1)
  %4 = icmp eq ptr %3, null
  br i1 %4, label %13, label %5

5:                                                ; preds = %2
  %6 = load ptr, ptr @default_config_file, align 8, !tbaa !20
  %.not10 = icmp eq ptr %0, %6
  br i1 %.not10, label %13, label %app_load_config_internal.exit.thread11.i

app_load_config_internal.exit.thread11.i:         ; preds = %5
  %7 = tail call i32 @CONF_modules_load(ptr noundef nonnull %3, ptr noundef null, i64 noundef 0) #27
  %8 = icmp slt i32 %7, 1
  br i1 %8, label %9, label %.sink.split

9:                                                ; preds = %app_load_config_internal.exit.thread11.i
  %10 = load ptr, ptr @bio_err, align 8, !tbaa !26
  %11 = tail call i32 (ptr, ptr, ...) @BIO_printf(ptr noundef %10, ptr noundef nonnull @.str.14) #27
  %12 = load ptr, ptr @bio_err, align 8, !tbaa !26
  tail call void @ERR_print_errors(ptr noundef %12) #27
  tail call void @NCONF_free(ptr noundef null) #27
  br label %.sink.split

.sink.split:                                      ; preds = %app_load_config_internal.exit.thread11.i, %9
  %.sink = phi ptr [ %3, %9 ], [ null, %app_load_config_internal.exit.thread11.i ]
  %.07.ph = phi ptr [ null, %9 ], [ %3, %app_load_config_internal.exit.thread11.i ]
  tail call void @NCONF_free(ptr noundef %.sink) #27
  br label %13

13:                                               ; preds = %.sink.split, %1, %5, %2
  %.07 = phi ptr [ null, %2 ], [ %3, %5 ], [ null, %1 ], [ %.07.ph, %.sink.split ]
  ret ptr %.07
}